(lp1
(lp2
S'discrete'
p3
aS''
aI2
aa(lp4
g3
aS''
aI2
aa(lp5
S'categorical'
p6
aI0
a(lp7
F0.063733336888981085
aF0.026476945766547355
aaa(lp8
g6
aI1
a(lp9
F0.84600025755215225
aF0.65894721076760876
aaa(lp10
S'prod'
p11
a(lp12
I2
aI3
aaa(lp13
g6
aI0
a(lp14
F0.23977039557773006
aF0.91165725096583317
aaa(lp15
g6
aI1
a(lp16
F0.58510638367099255
aF0.37358155250136438
aaa(lp17
g11
a(lp18
I5
aI6
aaa(lp19
S'sum'
p20
a(lp21
I4
aI7
aa(lp22
F0.93892873202335303
aF0.57831882669580381
aaa.